target datalayout = "e-m:e-p270:32:32-p271:32:32-p272:64:64-i64:64-i128:128-f80:128-n8:16:32:64-S128"
target triple = "x86_64-pc-linux-gnu"

%struct.archive_rb_tree_ops = type { ptr, ptr }
%struct.archive_match = type { %struct.archive, i32, i32, %struct.match_list, %struct.match_list, i64, i32, i64, i64, i32, i64, i64, i32, i64, i64, i32, i64, i64, %struct.archive_rb_tree, %struct.entry_list, %struct.id_array, %struct.id_array, %struct.match_list, %struct.match_list }
%struct.archive = type { i32, i32, ptr, i32, ptr, i32, i32, ptr, %struct.archive_string, ptr, i32, i32, ptr, ptr, i64, i64, i64, i8, i64 }
%struct.archive_string = type { ptr, i64, i64 }
%struct.archive_rb_tree = type { ptr, ptr }
%struct.entry_list = type { ptr, ptr, i32 }
%struct.id_array = type { i64, i64, ptr }
%struct.match_list = type { ptr, ptr, i32, i32, ptr, i32 }

@rb_ops_mbs = internal constant %struct.archive_rb_tree_ops { ptr @cmp_node_mbs, ptr @cmp_key_mbs }, align 8

; Function Attrs: nounwind uwtable
define internal void @entry_list_init(ptr noundef %0) #0 {
  %2 = alloca ptr, align 8
  store ptr %0, ptr %2, align 8, !tbaa !36
  %3 = load ptr, ptr %2, align 8, !tbaa !36
  %4 = getelementptr inbounds nuw %struct.entry_list, ptr %3, i32 0, i32 0
  store ptr null, ptr %4, align 8, !tbaa !38
  %5 = load ptr, ptr %2, align 8, !tbaa !36
  %6 = getelementptr inbounds nuw %struct.entry_list, ptr %5, i32 0, i32 0
  %7 = load ptr, ptr %2, align 8, !tbaa !36
  %8 = getelementptr inbounds nuw %struct.entry_list, ptr %7, i32 0, i32 1
  store ptr %6, ptr %8, align 8, !tbaa !39
  %9 = load ptr, ptr %2, align 8, !tbaa !36
  %10 = getelementptr inbounds nuw %struct.entry_list, ptr %9, i32 0, i32 2
  store i32 0, ptr %10, align 8, !tbaa !40
  ret void
}

; Function Attrs: nounwind uwtable
define internal void @match_list_init(ptr noundef %0) #0 {
  %2 = alloca ptr, align 8
  store ptr %0, ptr %2, align 8, !tbaa !31
  %3 = load ptr, ptr %2, align 8, !tbaa !31
  %4 = getelementptr inbounds nuw %struct.match_list, ptr %3, i32 0, i32 0
  store ptr null, ptr %4, align 8, !tbaa !33
  %5 = load ptr, ptr %2, align 8, !tbaa !31
  %6 = getelementptr inbounds nuw %struct.match_list, ptr %5, i32 0, i32 0
  %7 = load ptr, ptr %2, align 8, !tbaa !31
  %8 = getelementptr inbounds nuw %struct.match_list, ptr %7, i32 0, i32 1
  store ptr %6, ptr %8, align 8, !tbaa !34
  %9 = load ptr, ptr %2, align 8, !tbaa !31
  %10 = getelementptr inbounds nuw %struct.match_list, ptr %9, i32 0, i32 2
  store i32 0, ptr %10, align 8, !tbaa !35
  ret void
}

; Function Attrs: nounwind uwtable
define dso_local ptr @archive_match_new() #0 {
  %1 = alloca ptr, align 8
  %2 = alloca ptr, align 8
  %3 = alloca i32, align 4
  call void @llvm.lifetime.start.p0(i64 8, ptr %2) #9
  %4 = call noalias ptr @calloc(i64 noundef 1, i64 noundef 504) #10
  store ptr %4, ptr %2, align 8, !tbaa !4
  %5 = load ptr, ptr %2, align 8, !tbaa !4
  %6 = icmp eq ptr %5, null
  br i1 %6, label %7, label %8

7:                                                ; preds = %0
  store ptr null, ptr %1, align 8
  store i32 1, ptr %3, align 4
  br label %34

8:                                                ; preds = %0
  %9 = load ptr, ptr %2, align 8, !tbaa !4
  %10 = getelementptr inbounds nuw %struct.archive_match, ptr %9, i32 0, i32 0
  %11 = getelementptr inbounds nuw %struct.archive, ptr %10, i32 0, i32 0
  store i32 212668873, ptr %11, align 8, !tbaa !9
  %12 = load ptr, ptr %2, align 8, !tbaa !4
  %13 = getelementptr inbounds nuw %struct.archive_match, ptr %12, i32 0, i32 0
  %14 = getelementptr inbounds nuw %struct.archive, ptr %13, i32 0, i32 1
  store i32 1, ptr %14, align 4, !tbaa !29
  %15 = load ptr, ptr %2, align 8, !tbaa !4
  %16 = getelementptr inbounds nuw %struct.archive_match, ptr %15, i32 0, i32 2
  store i32 1, ptr %16, align 4, !tbaa !30
  %17 = load ptr, ptr %2, align 8, !tbaa !4
  %18 = getelementptr inbounds nuw %struct.archive_match, ptr %17, i32 0, i32 4
  call void @match_list_init(ptr noundef %18)
  %19 = load ptr, ptr %2, align 8, !tbaa !4
  %20 = getelementptr inbounds nuw %struct.archive_match, ptr %19, i32 0, i32 3
  call void @match_list_init(ptr noundef %20)
  %21 = load ptr, ptr %2, align 8, !tbaa !4
  %22 = getelementptr inbounds nuw %struct.archive_match, ptr %21, i32 0, i32 18
  call void @__archive_rb_tree_init(ptr noundef %22, ptr noundef @rb_ops_mbs)
  %23 = load ptr, ptr %2, align 8, !tbaa !4
  %24 = getelementptr inbounds nuw %struct.archive_match, ptr %23, i32 0, i32 19
  call void @entry_list_init(ptr noundef %24)
  %25 = load ptr, ptr %2, align 8, !tbaa !4
  %26 = getelementptr inbounds nuw %struct.archive_match, ptr %25, i32 0, i32 22
  call void @match_list_init(ptr noundef %26)
  %27 = load ptr, ptr %2, align 8, !tbaa !4
  %28 = getelementptr inbounds nuw %struct.archive_match, ptr %27, i32 0, i32 23
  call void @match_list_init(ptr noundef %28)
  %29 = load ptr, ptr %2, align 8, !tbaa !4
  %30 = getelementptr inbounds nuw %struct.archive_match, ptr %29, i32 0, i32 5
  %31 = call i64 @time(ptr noundef %30) #9
  %32 = load ptr, ptr %2, align 8, !tbaa !4
  %33 = getelementptr inbounds nuw %struct.archive_match, ptr %32, i32 0, i32 0
  store ptr %33, ptr %1, align 8
  store i32 1, ptr %3, align 4
  br label %34

34:                                               ; preds = %8, %7
  call void @llvm.lifetime.end.p0(i64 8, ptr %2) #9
  %35 = load ptr, ptr %1, align 8
  ret ptr %35
}