; Function Attrs: nounwind uwtable
define dso_local noundef ptr @archive_match_new() local_unnamed_addr #0 {
  %1 = tail call noalias dereferenceable_or_null(504) ptr @calloc(i64 noundef 1, i64 noundef 504) #13
  %2 = icmp eq ptr %1, null
  br i1 %2, label %22, label %3

3:                                                ; preds = %0
  store i32 212668873, ptr %1, align 8, !tbaa !4
  %4 = getelementptr inbounds nuw i8, ptr %1, i64 4
  store i32 1, ptr %4, align 4, !tbaa !27
  %5 = getelementptr inbounds nuw i8, ptr %1, i64 148
  store i32 1, ptr %5, align 4, !tbaa !28
  %6 = getelementptr inbounds nuw i8, ptr %1, i64 192
  %7 = getelementptr inbounds nuw i8, ptr %1, i64 200
  store ptr %6, ptr %7, align 8, !tbaa !29
  %8 = getelementptr inbounds nuw i8, ptr %1, i64 152
  %9 = getelementptr inbounds nuw i8, ptr %1, i64 160
  store ptr %8, ptr %9, align 8, !tbaa !29
  %10 = getelementptr inbounds nuw i8, ptr %1, i64 336
  tail call void @__archive_rb_tree_init(ptr noundef nonnull %10, ptr noundef nonnull @rb_ops_mbs) #14
  %11 = getelementptr inbounds nuw i8, ptr %1, i64 352
  store ptr null, ptr %11, align 8, !tbaa !30
  %12 = getelementptr inbounds nuw i8, ptr %1, i64 360
  store ptr %11, ptr %12, align 8, !tbaa !31
  %13 = getelementptr inbounds nuw i8, ptr %1, i64 368
  store i32 0, ptr %13, align 8, !tbaa !32
  %14 = getelementptr inbounds nuw i8, ptr %1, i64 424
  store ptr null, ptr %14, align 8, !tbaa !33
  %15 = getelementptr inbounds nuw i8, ptr %1, i64 432
  store ptr %14, ptr %15, align 8, !tbaa !29
  %16 = getelementptr inbounds nuw i8, ptr %1, i64 440
  store i32 0, ptr %16, align 8, !tbaa !34
  %17 = getelementptr inbounds nuw i8, ptr %1, i64 464
  store ptr null, ptr %17, align 8, !tbaa !33
  %18 = getelementptr inbounds nuw i8, ptr %1, i64 472
  store ptr %17, ptr %18, align 8, !tbaa !29
  %19 = getelementptr inbounds nuw i8, ptr %1, i64 480
  store i32 0, ptr %19, align 8, !tbaa !34
  %20 = getelementptr inbounds nuw i8, ptr %1, i64 232
  %21 = tail call i64 @time(ptr noundef nonnull %20) #14
  br label %22

22:                                               ; preds = %0, %3
  ret ptr %1
}